target datalayout = "e-m:e-p270:32:32-p271:32:32-p272:64:64-i64:64-i128:128-f80:128-n8:16:32:64-S128"
target triple = "x86_64-pc-linux-gnu"

@if_exists = internal global i32 0, align 4
@OPF = internal global ptr null, align 8
@.str.120 = private unnamed_addr constant [1 x i8] zeroinitializer, align 1
@.str.185 = private unnamed_addr constant [11 x i8] c"IF EXISTS \00", align 1
@.str.186 = private unnamed_addr constant [3 x i8] c"\0A\0A\00", align 1
@.str.263 = private unnamed_addr constant [80 x i8] c"SELECT spcname FROM pg_catalog.pg_tablespace WHERE spcname !~ '^pg_' ORDER BY 1\00", align 1
@.str.264 = private unnamed_addr constant [28 x i8] c"--\0A-- Drop tablespaces\0A--\0A\0A\00", align 1
@.str.265 = private unnamed_addr constant [23 x i8] c"DROP TABLESPACE %s%s;\0A\00", align 1

; Function Attrs: nounwind uwtable
define internal void @dropTablespaces(ptr noundef %0) #0 {
  %2 = alloca ptr, align 8
  %3 = alloca ptr, align 8
  %4 = alloca i32, align 4
  %5 = alloca ptr, align 8
  store ptr %0, ptr %2, align 8
  call void @llvm.lifetime.start.p0(i64 8, ptr %3) #11
  call void @llvm.lifetime.start.p0(i64 4, ptr %4) #11
  %6 = load ptr, ptr %2, align 8
  %7 = call ptr @executeQuery(ptr noundef %6, ptr noundef @.str.263)
  store ptr %7, ptr %3, align 8
  %8 = load ptr, ptr %3, align 8
  %9 = call i32 @PQntuples(ptr noundef %8)
  %10 = icmp sgt i32 %9, 0
  br i1 %10, label %11, label %14

11:                                               ; preds = %1
  %12 = load ptr, ptr @OPF, align 8
  %13 = call i32 (ptr, ptr, ...) @pg_fprintf(ptr noundef %12, ptr noundef @.str.264)
  br label %14

14:                                               ; preds = %11, %1
  store i32 0, ptr %4, align 4
  br label %15

15:                                               ; preds = %31, %14
  %16 = load i32, ptr %4, align 4
  %17 = load ptr, ptr %3, align 8
  %18 = call i32 @PQntuples(ptr noundef %17)
  %19 = icmp slt i32 %16, %18
  br i1 %19, label %20, label %34

20:                                               ; preds = %15
  call void @llvm.lifetime.start.p0(i64 8, ptr %5) #11
  %21 = load ptr, ptr %3, align 8
  %22 = load i32, ptr %4, align 4
  %23 = call ptr @PQgetvalue(ptr noundef %21, i32 noundef %22, i32 noundef 0)
  store ptr %23, ptr %5, align 8
  %24 = load ptr, ptr @OPF, align 8
  %25 = load i32, ptr @if_exists, align 4
  %26 = icmp ne i32 %25, 0
  %27 = select i1 %26, ptr @.str.185, ptr @.str.120
  %28 = load ptr, ptr %5, align 8
  %29 = call ptr @fmtId(ptr noundef %28)
  %30 = call i32 (ptr, ptr, ...) @pg_fprintf(ptr noundef %24, ptr noundef @.str.265, ptr noundef %27, ptr noundef %29)
  call void @llvm.lifetime.end.p0(i64 8, ptr %5) #11
  br label %31

31:                                               ; preds = %20
  %32 = load i32, ptr %4, align 4
  %33 = add i32 %32, 1
  store i32 %33, ptr %4, align 4
  br label %15, !llvm.loop !15

34:                                               ; preds = %15
  %35 = load ptr, ptr %3, align 8
  call void @PQclear(ptr noundef %35)
  %36 = load ptr, ptr @OPF, align 8
  %37 = call i32 (ptr, ptr, ...) @pg_fprintf(ptr noundef %36, ptr noundef @.str.186)
  call void @llvm.lifetime.end.p0(i64 4, ptr %4) #11
  call void @llvm.lifetime.end.p0(i64 8, ptr %3) #11
  ret void
}