; Function Attrs: nounwind uwtable
define internal fastcc void @dropTablespaces(ptr noundef nonnull %0) unnamed_addr #4 {
  %2 = tail call fastcc ptr @executeQuery(ptr noundef %0, ptr noundef nonnull @.str.263)
  %3 = tail call i32 @PQntuples(ptr noundef nonnull %2) #15
  %4 = icmp sgt i32 %3, 0
  br i1 %4, label %5, label %8

5:                                                ; preds = %1
  %6 = load ptr, ptr @OPF, align 8
  %7 = tail call i32 (ptr, ptr, ...) @pg_fprintf(ptr noundef %6, ptr noundef nonnull @.str.264) #15
  br label %8

8:                                                ; preds = %5, %1
  %9 = tail call i32 @PQntuples(ptr noundef nonnull %2) #15
  %10 = icmp sgt i32 %9, 0
  br i1 %10, label %.lr.ph, label %._crit_edge

.lr.ph:                                           ; preds = %8, %.lr.ph
  %.08 = phi i32 [ %17, %.lr.ph ], [ 0, %8 ]
  %11 = tail call ptr @PQgetvalue(ptr noundef nonnull %2, i32 noundef %.08, i32 noundef 0) #15
  %12 = load ptr, ptr @OPF, align 8
  %13 = load i32, ptr @if_exists, align 4
  %.not = icmp eq i32 %13, 0
  %14 = select i1 %.not, ptr @.str.120, ptr @.str.185
  %15 = tail call ptr @fmtId(ptr noundef %11) #15
  %16 = tail call i32 (ptr, ptr, ...) @pg_fprintf(ptr noundef %12, ptr noundef nonnull @.str.265, ptr noundef nonnull %14, ptr noundef %15) #15
  %17 = add nuw nsw i32 %.08, 1
  %18 = tail call i32 @PQntuples(ptr noundef nonnull %2) #15
  %19 = icmp slt i32 %17, %18
  br i1 %19, label %.lr.ph, label %._crit_edge, !llvm.loop !13

._crit_edge:                                      ; preds = %.lr.ph, %8
  tail call void @PQclear(ptr noundef nonnull %2) #15
  %20 = load ptr, ptr @OPF, align 8
  %21 = tail call i32 (ptr, ptr, ...) @pg_fprintf(ptr noundef %20, ptr noundef nonnull @.str.186) #15
  ret void
}